; ModuleID = '31/306.c'
source_filename = "31/306.c"
target datalayout = "e-m:e-p270:32:32-p271:32:32-p272:64:64-i64:64-f80:128-n8:16:32:64-S128"
target triple = "x86_64-pc-linux-gnu"

%struct.student = type { [20 x i8], [30 x i8], [2 x i8], [10 x i8], [3 x i8], [20 x i8], %struct.student* }

@n = common dso_local global i32 0, align 4
@.str = private unnamed_addr constant [3 x i8] c"%s\00", align 1
@.str.1 = private unnamed_addr constant [11 x i8] c"%s%s%s%s%s\00", align 1
@.str.2 = private unnamed_addr constant [19 x i8] c"%s %s %s %s %s %s\0A\00", align 1

; Function Attrs: noinline nounwind uwtable
define dso_local void @main() #0 {
  %1 = alloca %struct.student*, align 8
  %2 = alloca %struct.student*, align 8
  %3 = alloca %struct.student*, align 8
  %4 = alloca %struct.student*, align 8
  store i32 0, i32* @n, align 4
  %5 = call noalias i8* @malloc(i64 100) #3
  %6 = bitcast i8* %5 to %struct.student*
  store %struct.student* %6, %struct.student** %3, align 8
  store %struct.student* %6, %struct.student** %2, align 8
  store %struct.student* null, %struct.student** %1, align 8
  br label %7

7:                                                ; preds = %31, %0
  %8 = load %struct.student*, %struct.student** %2, align 8
  %9 = getelementptr inbounds %struct.student, %struct.student* %8, i32 0, i32 0
  %10 = getelementptr inbounds [20 x i8], [20 x i8]* %9, i64 0, i64 0
  %11 = call i32 (i8*, ...) @__isoc99_scanf(i8* getelementptr inbounds ([3 x i8], [3 x i8]* @.str, i64 0, i64 0), i8* %10)
  %12 = load %struct.student*, %struct.student** %2, align 8
  %13 = getelementptr inbounds %struct.student, %struct.student* %12, i32 0, i32 0
  %14 = getelementptr inbounds [20 x i8], [20 x i8]* %13, i64 0, i64 0
  %15 = load i8, i8* %14, align 8
  %16 = sext i8 %15 to i32
  %17 = icmp ne i32 %16, 101
  br i1 %17, label %18, label %51

18:                                               ; preds = %7
  %19 = load i32, i32* @n, align 4
  %20 = add nsw i32 %19, 1
  store i32 %20, i32* @n, align 4
  %21 = load %struct.student*, %struct.student** %2, align 8
  store %struct.student* %21, %struct.student** %1, align 8
  %22 = load i32, i32* @n, align 4
  %23 = icmp sgt i32 %22, 1
  br i1 %23, label %24, label %28

24:                                               ; preds = %18
  %25 = load %struct.student*, %struct.student** %3, align 8
  %26 = load %struct.student*, %struct.student** %2, align 8
  %27 = getelementptr inbounds %struct.student, %struct.student* %26, i32 0, i32 6
  store %struct.student* %25, %struct.student** %27, align 8
  br label %31

28:                                               ; preds = %18
  %29 = load %struct.student*, %struct.student** %2, align 8
  %30 = getelementptr inbounds %struct.student, %struct.student* %29, i32 0, i32 6
  store %struct.student* null, %struct.student** %30, align 8
  br label %31

31:                                               ; preds = %28, %24
  %32 = load %struct.student*, %struct.student** %2, align 8
  store %struct.student* %32, %struct.student** %3, align 8
  %33 = load %struct.student*, %struct.student** %2, align 8
  %34 = getelementptr inbounds %struct.student, %struct.student* %33, i32 0, i32 1
  %35 = getelementptr inbounds [30 x i8], [30 x i8]* %34, i64 0, i64 0
  %36 = load %struct.student*, %struct.student** %2, align 8
  %37 = getelementptr inbounds %struct.student, %struct.student* %36, i32 0, i32 2
  %38 = getelementptr inbounds [2 x i8], [2 x i8]* %37, i64 0, i64 0
  %39 = load %struct.student*, %struct.student** %2, align 8
  %40 = getelementptr inbounds %struct.student, %struct.student* %39, i32 0, i32 4
  %41 = getelementptr inbounds [3 x i8], [3 x i8]* %40, i64 0, i64 0
  %42 = load %struct.student*, %struct.student** %2, align 8
  %43 = getelementptr inbounds %struct.student, %struct.student* %42, i32 0, i32 3
  %44 = getelementptr inbounds [10 x i8], [10 x i8]* %43, i64 0, i64 0
  %45 = load %struct.student*, %struct.student** %2, align 8
  %46 = getelementptr inbounds %struct.student, %struct.student* %45, i32 0, i32 5
  %47 = getelementptr inbounds [20 x i8], [20 x i8]* %46, i64 0, i64 0
  %48 = call i32 (i8*, ...) @__isoc99_scanf(i8* getelementptr inbounds ([11 x i8], [11 x i8]* @.str.1, i64 0, i64 0), i8* %35, i8* %38, i8* %41, i8* %44, i8* %47)
  %49 = call noalias i8* @malloc(i64 100) #3
  %50 = bitcast i8* %49 to %struct.student*
  store %struct.student* %50, %struct.student** %2, align 8
  br label %7

51:                                               ; preds = %7
  %52 = load %struct.student*, %struct.student** %1, align 8
  store %struct.student* %52, %struct.student** %4, align 8
  br label %53

53:                                               ; preds = %56, %51
  %54 = load %struct.student*, %struct.student** %4, align 8
  %55 = icmp ne %struct.student* %54, null
  br i1 %55, label %56, label %79

56:                                               ; preds = %53
  %57 = load %struct.student*, %struct.student** %4, align 8
  %58 = getelementptr inbounds %struct.student, %struct.student* %57, i32 0, i32 0
  %59 = getelementptr inbounds [20 x i8], [20 x i8]* %58, i64 0, i64 0
  %60 = load %struct.student*, %struct.student** %4, align 8
  %61 = getelementptr inbounds %struct.student, %struct.student* %60, i32 0, i32 1
  %62 = getelementptr inbounds [30 x i8], [30 x i8]* %61, i64 0, i64 0
  %63 = load %struct.student*, %struct.student** %4, align 8
  %64 = getelementptr inbounds %struct.student, %struct.student* %63, i32 0, i32 2
  %65 = getelementptr inbounds [2 x i8], [2 x i8]* %64, i64 0, i64 0
  %66 = load %struct.student*, %struct.student** %4, align 8
  %67 = getelementptr inbounds %struct.student, %struct.student* %66, i32 0, i32 4
  %68 = getelementptr inbounds [3 x i8], [3 x i8]* %67, i64 0, i64 0
  %69 = load %struct.student*, %struct.student** %4, align 8
  %70 = getelementptr inbounds %struct.student, %struct.student* %69, i32 0, i32 3
  %71 = getelementptr inbounds [10 x i8], [10 x i8]* %70, i64 0, i64 0
  %72 = load %struct.student*, %struct.student** %4, align 8
  %73 = getelementptr inbounds %struct.student, %struct.student* %72, i32 0, i32 5
  %74 = getelementptr inbounds [20 x i8], [20 x i8]* %73, i64 0, i64 0
  %75 = call i32 (i8*, ...) @printf(i8* getelementptr inbounds ([19 x i8], [19 x i8]* @.str.2, i64 0, i64 0), i8* %59, i8* %62, i8* %65, i8* %68, i8* %71, i8* %74)
  %76 = load %struct.student*, %struct.student** %4, align 8
  %77 = getelementptr inbounds %struct.student, %struct.student* %76, i32 0, i32 6
  %78 = load %struct.student*, %struct.student** %77, align 8
  store %struct.student* %78, %struct.student** %4, align 8
  br label %53

79:                                               ; preds = %53
  ret void
}

; Function Attrs: nounwind
declare dso_local noalias i8* @malloc(i64) #1

declare dso_local i32 @__isoc99_scanf(i8*, ...) #2

declare dso_local i32 @printf(i8*, ...) #2


!llvm.module.flags = !{!0}
!llvm.ident = !{!1}

!0 = !{i32 1, !"wchar_size", i32 4}
!1 = !{!"clang version 10.0.0-4ubuntu1 "}
