; ModuleID = 'source-C-CXX/30/306.c'
source_filename = "source-C-CXX/30/306.c"
target datalayout = "e-m:e-p270:32:32-p271:32:32-p272:64:64-i64:64-f80:128-n8:16:32:64-S128"
target triple = "x86_64-pc-linux-gnu"

%struct.student = type { [20 x i8], [30 x i8], [2 x i8], [10 x i8], [3 x i8], [20 x i8], %struct.student* }

@n = dso_local local_unnamed_addr global i32 0, align 4
@.str = private unnamed_addr constant [3 x i8] c"%s\00", align 1
@.str.1 = private unnamed_addr constant [11 x i8] c"%s%s%s%s%s\00", align 1
@.str.2 = private unnamed_addr constant [19 x i8] c"%s %s %s %s %s %s\0A\00", align 1

; Function Attrs: nofree nounwind sspstrong uwtable
define dso_local void @main() local_unnamed_addr #0 {
  store i32 0, i32* @n, align 4, !tbaa !5
  %1 = tail call noalias align 16 dereferenceable_or_null(100) i8* @malloc(i64 100) #3
  %2 = bitcast i8* %1 to %struct.student*
  %3 = getelementptr inbounds %struct.student, %struct.student* %2, i64 0, i32 0, i64 0
  %4 = tail call i32 (i8*, ...) @__isoc99_scanf(i8* getelementptr inbounds ([3 x i8], [3 x i8]* @.str, i64 0, i64 0), i8* %3)
  %5 = load i8, i8* %3, align 16, !tbaa !9
  %6 = icmp eq i8 %5, 101
  br i1 %6, label %39, label %7

7:                                                ; preds = %0, %7
  %8 = phi %struct.student* [ %9, %7 ], [ %2, %0 ]
  %9 = phi %struct.student* [ %22, %7 ], [ %2, %0 ]
  %10 = load i32, i32* @n, align 4, !tbaa !5
  %11 = add nsw i32 %10, 1
  store i32 %11, i32* @n, align 4, !tbaa !5
  %12 = icmp sgt i32 %10, 0
  %13 = select i1 %12, %struct.student* %8, %struct.student* null
  %14 = getelementptr inbounds %struct.student, %struct.student* %9, i64 0, i32 6
  store %struct.student* %13, %struct.student** %14, align 8
  %15 = getelementptr inbounds %struct.student, %struct.student* %9, i64 0, i32 1, i64 0
  %16 = getelementptr inbounds %struct.student, %struct.student* %9, i64 0, i32 2, i64 0
  %17 = getelementptr inbounds %struct.student, %struct.student* %9, i64 0, i32 4, i64 0
  %18 = getelementptr inbounds %struct.student, %struct.student* %9, i64 0, i32 3, i64 0
  %19 = getelementptr inbounds %struct.student, %struct.student* %9, i64 0, i32 5, i64 0
  %20 = tail call i32 (i8*, ...) @__isoc99_scanf(i8* getelementptr inbounds ([11 x i8], [11 x i8]* @.str.1, i64 0, i64 0), i8* nonnull %15, i8* nonnull %16, i8* nonnull %17, i8* nonnull %18, i8* nonnull %19)
  %21 = tail call noalias align 16 dereferenceable_or_null(100) i8* @malloc(i64 100) #3
  %22 = bitcast i8* %21 to %struct.student*
  %23 = getelementptr inbounds %struct.student, %struct.student* %22, i64 0, i32 0, i64 0
  %24 = tail call i32 (i8*, ...) @__isoc99_scanf(i8* getelementptr inbounds ([3 x i8], [3 x i8]* @.str, i64 0, i64 0), i8* %23)
  %25 = load i8, i8* %23, align 16, !tbaa !9
  %26 = icmp eq i8 %25, 101
  br i1 %26, label %27, label %7, !llvm.loop !10

27:                                               ; preds = %7, %27
  %28 = phi %struct.student* [ %37, %27 ], [ %9, %7 ]
  %29 = getelementptr inbounds %struct.student, %struct.student* %28, i64 0, i32 0, i64 0
  %30 = getelementptr inbounds %struct.student, %struct.student* %28, i64 0, i32 1, i64 0
  %31 = getelementptr inbounds %struct.student, %struct.student* %28, i64 0, i32 2, i64 0
  %32 = getelementptr inbounds %struct.student, %struct.student* %28, i64 0, i32 4, i64 0
  %33 = getelementptr inbounds %struct.student, %struct.student* %28, i64 0, i32 3, i64 0
  %34 = getelementptr inbounds %struct.student, %struct.student* %28, i64 0, i32 5, i64 0
  %35 = tail call i32 (i8*, ...) @printf(i8* nonnull dereferenceable(1) getelementptr inbounds ([19 x i8], [19 x i8]* @.str.2, i64 0, i64 0), i8* nonnull %29, i8* nonnull %30, i8* nonnull %31, i8* nonnull %32, i8* nonnull %33, i8* nonnull %34)
  %36 = getelementptr inbounds %struct.student, %struct.student* %28, i64 0, i32 6
  %37 = load %struct.student*, %struct.student** %36, align 8, !tbaa !12
  %38 = icmp eq %struct.student* %37, null
  br i1 %38, label %39, label %27, !llvm.loop !15

39:                                               ; preds = %27, %0
  ret void
}

; Function Attrs: inaccessiblememonly mustprogress nofree nounwind willreturn
declare noalias noundef align 16 i8* @malloc(i64 noundef) local_unnamed_addr #1

; Function Attrs: nofree nounwind
declare noundef i32 @__isoc99_scanf(i8* nocapture noundef readonly, ...) local_unnamed_addr #2

; Function Attrs: nofree nounwind
declare noundef i32 @printf(i8* nocapture noundef readonly, ...) local_unnamed_addr #2


!llvm.module.flags = !{!0, !1, !2, !3}
!llvm.ident = !{!4}

!0 = !{i32 1, !"wchar_size", i32 4}
!1 = !{i32 7, !"PIC Level", i32 2}
!2 = !{i32 7, !"PIE Level", i32 2}
!3 = !{i32 7, !"uwtable", i32 1}
!4 = !{!"clang version 13.0.0"}
!5 = !{!6, !6, i64 0}
!6 = !{!"int", !7, i64 0}
!7 = !{!"omnipotent char", !8, i64 0}
!8 = !{!"Simple C/C++ TBAA"}
!9 = !{!7, !7, i64 0}
!10 = distinct !{!10, !11}
!11 = !{!"llvm.loop.mustprogress"}
!12 = !{!13, !14, i64 88}
!13 = !{!"student", !7, i64 0, !7, i64 20, !7, i64 50, !7, i64 52, !7, i64 62, !7, i64 65, !14, i64 88}
!14 = !{!"any pointer", !7, i64 0}
!15 = distinct !{!15, !11}
